; ModuleID = 'source-C-CXX/27/55.c'
source_filename = "source-C-CXX/27/55.c"
target datalayout = "e-m:e-p270:32:32-p271:32:32-p272:64:64-i64:64-f80:128-n8:16:32:64-S128"
target triple = "x86_64-pc-linux-gnu"

%struct._IO_FILE = type { i32, i8*, i8*, i8*, i8*, i8*, i8*, i8*, i8*, i8*, i8*, i8*, %struct._IO_marker*, %struct._IO_FILE*, i32, i32, i64, i16, i8, [1 x i8], i8*, i64, %struct._IO_codecvt*, %struct._IO_wide_data*, %struct._IO_FILE*, i8*, i64, i32, [20 x i8] }
%struct._IO_marker = type opaque
%struct._IO_codecvt = type opaque
%struct._IO_wide_data = type opaque

@.str = private unnamed_addr constant [3 x i8] c"%s\00", align 1
@.str.1 = private unnamed_addr constant [3 x i8] c"%d\00", align 1
@stdin = external local_unnamed_addr global %struct._IO_FILE*, align 8

; Function Attrs: nofree nounwind sspstrong uwtable
define dso_local void @main() local_unnamed_addr #0 {
  %1 = alloca [300 x [50 x i8]], align 16
  %2 = getelementptr inbounds [300 x [50 x i8]], [300 x [50 x i8]]* %1, i64 0, i64 0, i64 0
  call void @llvm.lifetime.start.p0i8(i64 15000, i8* nonnull %2) #6
  %3 = call i32 (i8*, ...) @__isoc99_scanf(i8* getelementptr inbounds ([3 x i8], [3 x i8]* @.str, i64 0, i64 0), i8* nonnull %2)
  %4 = load %struct._IO_FILE*, %struct._IO_FILE** @stdin, align 8, !tbaa !5
  %5 = call i32 @getc(%struct._IO_FILE* %4) #6
  %6 = and i32 %5, 255
  %7 = icmp eq i32 %6, 10
  br i1 %7, label %10, label %16

8:                                                ; preds = %16
  %9 = trunc i64 %18 to i32
  br label %10

10:                                               ; preds = %8, %0
  %11 = phi i32 [ 1, %0 ], [ %9, %8 ]
  %12 = add nsw i32 %11, -1
  %13 = zext i32 %12 to i64
  %14 = call i32 @llvm.umax.i32(i32 %11, i32 1)
  %15 = zext i32 %14 to i64
  br label %25

16:                                               ; preds = %0, %16
  %17 = phi i64 [ %18, %16 ], [ 1, %0 ]
  %18 = add nuw i64 %17, 1
  %19 = getelementptr inbounds [300 x [50 x i8]], [300 x [50 x i8]]* %1, i64 0, i64 %17, i64 0
  %20 = call i32 (i8*, ...) @__isoc99_scanf(i8* getelementptr inbounds ([3 x i8], [3 x i8]* @.str, i64 0, i64 0), i8* nonnull %19)
  %21 = load %struct._IO_FILE*, %struct._IO_FILE** @stdin, align 8, !tbaa !5
  %22 = call i32 @getc(%struct._IO_FILE* %21) #6
  %23 = and i32 %22, 255
  %24 = icmp eq i32 %23, 10
  br i1 %24, label %8, label %16, !llvm.loop !9

25:                                               ; preds = %10, %33
  %26 = phi i64 [ 0, %10 ], [ %34, %33 ]
  %27 = getelementptr inbounds [300 x [50 x i8]], [300 x [50 x i8]]* %1, i64 0, i64 %26, i64 0
  %28 = call i64 @strlen(i8* noundef nonnull %27) #7
  %29 = call i32 (i8*, ...) @printf(i8* nonnull dereferenceable(1) getelementptr inbounds ([3 x i8], [3 x i8]* @.str.1, i64 0, i64 0), i64 %28)
  %30 = icmp eq i64 %26, %13
  br i1 %30, label %33, label %31

31:                                               ; preds = %25
  %32 = call i32 @putchar(i32 44)
  br label %33

33:                                               ; preds = %25, %31
  %34 = add nuw nsw i64 %26, 1
  %35 = icmp eq i64 %34, %15
  br i1 %35, label %36, label %25, !llvm.loop !11

36:                                               ; preds = %33
  call void @llvm.lifetime.end.p0i8(i64 15000, i8* nonnull %2) #6
  ret void
}

; Function Attrs: argmemonly mustprogress nofree nosync nounwind willreturn
declare void @llvm.lifetime.start.p0i8(i64 immarg, i8* nocapture) #1

; Function Attrs: nofree nounwind
declare noundef i32 @__isoc99_scanf(i8* nocapture noundef readonly, ...) local_unnamed_addr #2

; Function Attrs: nofree nounwind
declare noundef i32 @printf(i8* nocapture noundef readonly, ...) local_unnamed_addr #2

; Function Attrs: argmemonly mustprogress nofree nounwind readonly willreturn
declare i64 @strlen(i8* nocapture) local_unnamed_addr #3

; Function Attrs: argmemonly mustprogress nofree nosync nounwind willreturn
declare void @llvm.lifetime.end.p0i8(i64 immarg, i8* nocapture) #1

; Function Attrs: nofree nounwind
declare noundef i32 @getc(%struct._IO_FILE* nocapture noundef) local_unnamed_addr #2

; Function Attrs: nofree nounwind
declare noundef i32 @putchar(i32 noundef) local_unnamed_addr #4

; Function Attrs: nofree nosync nounwind readnone speculatable willreturn
declare i32 @llvm.umax.i32(i32, i32) #5


!llvm.module.flags = !{!0, !1, !2, !3}
!llvm.ident = !{!4}

!0 = !{i32 1, !"wchar_size", i32 4}
!1 = !{i32 7, !"PIC Level", i32 2}
!2 = !{i32 7, !"PIE Level", i32 2}
!3 = !{i32 7, !"uwtable", i32 1}
!4 = !{!"clang version 13.0.0"}
!5 = !{!6, !6, i64 0}
!6 = !{!"any pointer", !7, i64 0}
!7 = !{!"omnipotent char", !8, i64 0}
!8 = !{!"Simple C/C++ TBAA"}
!9 = distinct !{!9, !10}
!10 = !{!"llvm.loop.mustprogress"}
!11 = distinct !{!11, !10}
